; Function Attrs: mustprogress nounwind uwtable
define internal fastcc void @_ZNSt6vectorIZN9grpc_core12_GLOBAL__N_122XdsServerConfigFetcher15ListenerWatcher23FilterChainMatchManager13StartRdsWatchENS0_13RefCountedPtrIS3_EEE14WatcherToStartSaIS7_EED2Ev(ptr nocapture noundef nonnull readonly align 8 dereferenceable(24) %this) unnamed_addr #7 align 2 personality ptr @__gxx_personality_v0 {
entry:
  %0 = load ptr, ptr %this, align 8
  %_M_finish = getelementptr inbounds i8, ptr %this, i64 8
  %1 = load ptr, ptr %_M_finish, align 8
  %cmp.not3.i.i.i = icmp eq ptr %0, %1
  br i1 %cmp.not3.i.i.i, label %invoke.cont, label %for.body.i.i.i

for.body.i.i.i:                                   ; preds = %entry, %_ZSt8_DestroyIZN9grpc_core12_GLOBAL__N_122XdsServerConfigFetcher15ListenerWatcher23FilterChainMatchManager13StartRdsWatchENS0_13RefCountedPtrIS3_EEE14WatcherToStartEvPT_.exit.i.i.i
  %__first.addr.04.i.i.i = phi ptr [ %incdec.ptr.i.i.i, %_ZSt8_DestroyIZN9grpc_core12_GLOBAL__N_122XdsServerConfigFetcher15ListenerWatcher23FilterChainMatchManager13StartRdsWatchENS0_13RefCountedPtrIS3_EEE14WatcherToStartEvPT_.exit.i.i.i ], [ %0, %entry ]
  %watcher.i.i.i.i.i = getelementptr inbounds i8, ptr %__first.addr.04.i.i.i, i64 32
  %watcher.val.i.i.i.i.i = load ptr, ptr %watcher.i.i.i.i.i, align 8
  %cmp.not.i.i.i.i.i.i = icmp eq ptr %watcher.val.i.i.i.i.i, null
  br i1 %cmp.not.i.i.i.i.i.i, label %_ZSt8_DestroyIZN9grpc_core12_GLOBAL__N_122XdsServerConfigFetcher15ListenerWatcher23FilterChainMatchManager13StartRdsWatchENS0_13RefCountedPtrIS3_EEE14WatcherToStartEvPT_.exit.i.i.i, label %if.then.i.i.i.i.i.i

if.then.i.i.i.i.i.i:                              ; preds = %for.body.i.i.i
  %refs_.i.i.i.i.i.i.i = getelementptr inbounds i8, ptr %watcher.val.i.i.i.i.i, i64 8
  %2 = atomicrmw sub ptr %refs_.i.i.i.i.i.i.i, i64 1 acq_rel, align 8
  %cmp.i.i.i.i.i.i.i.i = icmp eq i64 %2, 1
  br i1 %cmp.i.i.i.i.i.i.i.i, label %if.then.i.i.i.i.i.i.i, label %_ZSt8_DestroyIZN9grpc_core12_GLOBAL__N_122XdsServerConfigFetcher15ListenerWatcher23FilterChainMatchManager13StartRdsWatchENS0_13RefCountedPtrIS3_EEE14WatcherToStartEvPT_.exit.i.i.i

if.then.i.i.i.i.i.i.i:                            ; preds = %if.then.i.i.i.i.i.i
  %vtable.i.i.i.i.i.i.i.i = load ptr, ptr %watcher.val.i.i.i.i.i, align 8
  %vfn.i.i.i.i.i.i.i.i = getelementptr inbounds i8, ptr %vtable.i.i.i.i.i.i.i.i, i64 8
  %3 = load ptr, ptr %vfn.i.i.i.i.i.i.i.i, align 8
  tail call void %3(ptr noundef nonnull align 8 dereferenceable(16) %watcher.val.i.i.i.i.i) #26
  br label %_ZSt8_DestroyIZN9grpc_core12_GLOBAL__N_122XdsServerConfigFetcher15ListenerWatcher23FilterChainMatchManager13StartRdsWatchENS0_13RefCountedPtrIS3_EEE14WatcherToStartEvPT_.exit.i.i.i

_ZSt8_DestroyIZN9grpc_core12_GLOBAL__N_122XdsServerConfigFetcher15ListenerWatcher23FilterChainMatchManager13StartRdsWatchENS0_13RefCountedPtrIS3_EEE14WatcherToStartEvPT_.exit.i.i.i: ; preds = %if.then.i.i.i.i.i.i.i, %if.then.i.i.i.i.i.i, %for.body.i.i.i
  tail call void @_ZNSt7__cxx1112basic_stringIcSt11char_traitsIcESaIcEED1Ev(ptr noundef nonnull align 8 dereferenceable(32) %__first.addr.04.i.i.i) #26
  %incdec.ptr.i.i.i = getelementptr inbounds i8, ptr %__first.addr.04.i.i.i, i64 40
  %cmp.not.i.i.i = icmp eq ptr %incdec.ptr.i.i.i, %1
  br i1 %cmp.not.i.i.i, label %invoke.contthread-pre-split, label %for.body.i.i.i, !llvm.loop !47

invoke.contthread-pre-split:                      ; preds = %_ZSt8_DestroyIZN9grpc_core12_GLOBAL__N_122XdsServerConfigFetcher15ListenerWatcher23FilterChainMatchManager13StartRdsWatchENS0_13RefCountedPtrIS3_EEE14WatcherToStartEvPT_.exit.i.i.i
  %this.val.pr = load ptr, ptr %this, align 8
  br label %invoke.cont

invoke.cont:                                      ; preds = %invoke.contthread-pre-split, %entry
  %this.val = phi ptr [ %this.val.pr, %invoke.contthread-pre-split ], [ %0, %entry ]
  %tobool.not.i.i = icmp eq ptr %this.val, null
  br i1 %tobool.not.i.i, label %_ZNSt12_Vector_baseIZN9grpc_core12_GLOBAL__N_122XdsServerConfigFetcher15ListenerWatcher23FilterChainMatchManager13StartRdsWatchENS0_13RefCountedPtrIS3_EEE14WatcherToStartSaIS7_EED2Ev.exit, label %if.then.i.i

if.then.i.i:                                      ; preds = %invoke.cont
  tail call void @_ZdlPv(ptr noundef nonnull %this.val) #29
  br label %_ZNSt12_Vector_baseIZN9grpc_core12_GLOBAL__N_122XdsServerConfigFetcher15ListenerWatcher23FilterChainMatchManager13StartRdsWatchENS0_13RefCountedPtrIS3_EEE14WatcherToStartSaIS7_EED2Ev.exit

_ZNSt12_Vector_baseIZN9grpc_core12_GLOBAL__N_122XdsServerConfigFetcher15ListenerWatcher23FilterChainMatchManager13StartRdsWatchENS0_13RefCountedPtrIS3_EEE14WatcherToStartSaIS7_EED2Ev.exit: ; preds = %invoke.cont, %if.then.i.i
  ret void
}